Certificate:
    Data:
        Version: 3 (0x2)
        Serial Number:
            96:d1:0a:c8:34:2c:c9:6a:bd:36:30:a6:64:12:ed:bf
    Signature Algorithm: sha256WithRSAEncryption
        Issuer: CN=openvpn
        Validity
            Not Before: Jul  7 09:07:11 2022 GMT
            Not After : Jun 13 09:07:11 2122 GMT
        Subject: CN=server
        Subject Public Key Info:
            Public Key Algorithm: rsaEncryption
                Public-Key: (2048 bit)
                Modulus:
                    00:cc:ff:f5:d7:4d:59:14:68:b6:06:09:3e:63:9d:
                    93:a5:9b:e0:53:07:36:ab:2d:bb:0d:0d:77:b5:89:
                    50:29:47:d8:90:42:c8:fb:71:7d:77:00:9b:22:dd:
                    45:e3:99:34:d8:45:96:b4:22:21:91:03:00:15:f9:
                    c2:c9:99:37:b9:a7:03:32:87:07:21:3b:27:40:37:
                    76:d6:91:99:85:0b:0c:6f:bc:a4:be:1f:37:cb:37:
                    46:d7:97:68:b8:fe:d6:ca:6f:3f:2f:16:89:b1:65:
                    ea:f1:a0:70:2b:eb:ff:ce:22:69:bb:1f:7f:8d:70:
                    2f:e8:03:69:9d:bb:d2:0f:39:76:61:ac:39:cf:0d:
                    a5:e1:67:0d:e4:95:6f:79:fd:d4:78:0a:38:d2:00:
                    b2:f3:8f:80:94:5f:67:65:50:f8:a4:3a:51:63:61:
                    2f:16:45:2d:a8:c3:be:5a:f2:bf:72:b7:23:b6:99:
                    5a:b5:c5:4a:1b:db:e0:27:92:03:80:0c:ee:22:9d:
                    f2:94:77:2a:59:a4:11:80:07:25:2c:89:ba:94:1c:
                    1a:e2:5a:84:58:f5:49:00:09:b3:2a:64:1b:82:5b:
                    35:c8:ed:3b:77:4c:11:e1:56:0c:1d:3b:5b:e2:92:
                    4a:04:f9:02:c3:00:8e:13:9b:ae:06:9b:ad:2d:dc:
                    09:bf
                Exponent: 65537 (0x10001)
        X509v3 extensions:
            X509v3 Basic Constraints: 
                CA:FALSE
            X509v3 Subject Key Identifier: 
                88:9B:4E:05:68:1F:F2:F0:24:DF:2A:03:40:C9:C6:F1:FB:68:25:0F
            X509v3 Authority Key Identifier: 
                keyid:0E:2B:6A:25:05:87:1C:40:6E:DE:67:9C:B8:77:B3:13:A4:C9:0A:5C
                DirName:/CN=openvpn
                serial:9E:63:11:EB:F3:88:E2:29

            X509v3 Extended Key Usage: 
                TLS Web Server Authentication
            X509v3 Key Usage: 
                Digital Signature, Key Encipherment
            X509v3 Subject Alternative Name: 
                DNS:server
    Signature Algorithm: sha256WithRSAEncryption
         16:a3:ca:8c:8b:57:38:2a:3e:f8:ea:83:2e:99:b9:30:c0:14:
         1f:80:e5:89:22:d2:06:f4:64:65:0c:2f:f8:34:30:6a:86:86:
         79:26:30:ce:08:a3:7d:ad:65:01:aa:54:7b:3a:98:7f:08:ae:
         1d:45:b0:43:0d:12:57:6b:a5:9e:56:10:54:6d:23:fe:7f:4e:
         b8:22:77:41:4a:0f:06:07:c5:a3:03:d0:f6:27:d5:4f:7c:5c:
         cc:d6:9b:20:a2:24:a8:7c:5c:94:15:21:5c:09:fd:17:16:c7:
         6d:5f:98:fc:9c:6b:b3:2b:11:55:0e:3a:6a:76:c2:fa:8d:46:
         de:56:2d:9b:94:52:43:52:3a:2f:8d:67:07:ce:e5:00:f5:75:
         c5:0c:3c:84:5a:ec:bc:84:2b:0e:c1:97:d0:e7:2c:0a:57:b3:
         41:80:6f:d7:ce:b1:a7:ad:b5:02:6e:20:37:e5:2d:d3:ab:e4:
         72:97:be:5a:a3:d8:42:61:5b:07:b2:d6:1a:d1:ac:0d:28:d5:
         d7:c7:50:4d:c2:17:1e:b1:d8:71:47:15:88:2b:87:56:7b:b5:
         28:c8:5c:a0:11:3f:0c:0e:08:f2:b4:5d:d1:1c:ba:d9:83:94:
         c9:fb:ca:fd:56:65:e3:09:27:91:b9:0f:98:69:57:e2:e0:3e:
         fa:91:71:81
-----BEGIN CERTIFICATE-----
MIIDVzCCAj+gAwIBAgIRAJbRCsg0LMlqvTYwpmQS7b8wDQYJKoZIhvcNAQELBQAw
EjEQMA4GA1UEAwwHb3BlbnZwbjAgFw0yMjA3MDcwOTA3MTFaGA8yMTIyMDYxMzA5
MDcxMVowETEPMA0GA1UEAwwGc2VydmVyMIIBIjANBgkqhkiG9w0BAQEFAAOCAQ8A
MIIBCgKCAQEAzP/1101ZFGi2Bgk+Y52TpZvgUwc2qy27DQ13tYlQKUfYkELI+3F9
dwCbIt1F45k02EWWtCIhkQMAFfnCyZk3uacDMocHITsnQDd21pGZhQsMb7ykvh83
yzdG15douP7Wym8/LxaJsWXq8aBwK+v/ziJpux9/jXAv6ANpnbvSDzl2Yaw5zw2l
4WcN5JVvef3UeAo40gCy84+AlF9nZVD4pDpRY2EvFkUtqMO+WvK/crcjtplatcVK
G9vgJ5IDgAzuIp3ylHcqWaQRgAclLIm6lBwa4lqEWPVJAAmzKmQbgls1yO07d0wR
4VYMHTtb4pJKBPkCwwCOE5uuBputLdwJvwIDAQABo4GmMIGjMAkGA1UdEwQCMAAw
HQYDVR0OBBYEFIibTgVoH/LwJN8qA0DJxvH7aCUPMEIGA1UdIwQ7MDmAFA4raiUF
hxxAbt5nnLh3sxOkyQpcoRakFDASMRAwDgYDVQQDDAdvcGVudnBuggkAnmMR6/OI
4ikwEwYDVR0lBAwwCgYIKwYBBQUHAwEwCwYDVR0PBAQDAgWgMBEGA1UdEQQKMAiC
BnNlcnZlcjANBgkqhkiG9w0BAQsFAAOCAQEAFqPKjItXOCo++OqDLpm5MMAUH4Dl
iSLSBvRkZQwv+DQwaoaGeSYwzgijfa1lAapUezqYfwiuHUWwQw0SV2ulnlYQVG0j
/n9OuCJ3QUoPBgfFowPQ9ifVT3xczNabIKIkqHxclBUhXAn9FxbHbV+Y/JxrsysR
VQ46anbC+o1G3lYtm5RSQ1I6L41nB87lAPV1xQw8hFrsvIQrDsGX0OcsClezQYBv
186xp621Am4gN+Ut06vkcpe+WqPYQmFbB7LWGtGsDSjV18dQTcIXHrHYcUcViCuH
Vnu1KMhcoBE/DA4I8rRd0Ry62YOUyfvK/VZl4wknkbkPmGlX4uA++pFxgQ==
-----END CERTIFICATE-----
